; Function Attrs: mustprogress nounwind uwtable
define dso_local noundef zeroext i1 @_ZN4llvm8LLParser14parseSanitizerEPNS_14GlobalVariableE(ptr noundef nonnull align 8 dereferenceable(1768) %0, ptr noundef %1) local_unnamed_addr #0 align 2 {
  %3 = alloca %"class.llvm::Twine", align 8
  %4 = getelementptr inbounds nuw i8, ptr %1, i64 32
  %5 = load i32, ptr %4, align 8
  %6 = and i32 %5, 65536
  %.not = icmp eq i32 %6, 0
  br i1 %.not, label %10, label %7

7:                                                ; preds = %2
  %8 = tail call noundef nonnull align 4 dereferenceable(1) ptr @_ZNK4llvm11GlobalValue20getSanitizerMetadataEv(ptr noundef nonnull align 8 dereferenceable(48) %1) #25
  %9 = load i8, ptr %8, align 4
  br label %10

10:                                               ; preds = %7, %2
  %.sroa.0.0 = phi i8 [ %9, %7 ], [ 0, %2 ]
  %11 = getelementptr inbounds nuw i8, ptr %0, i64 176
  %12 = getelementptr inbounds i8, ptr %0, i64 232
  %13 = load i32, ptr %12, align 8
  switch i32 %13, label %17 [
    i32 484, label %23
    i32 485, label %14
    i32 219, label %15
    i32 486, label %16
  ]

14:                                               ; preds = %10
  br label %23

15:                                               ; preds = %10
  br label %23

16:                                               ; preds = %10
  br label %23

17:                                               ; preds = %10
  %18 = getelementptr inbounds nuw i8, ptr %3, i64 32
  %19 = getelementptr inbounds nuw i8, ptr %3, i64 33
  store i8 1, ptr %19, align 1
  store ptr @.str.59, ptr %3, align 8
  store i8 3, ptr %18, align 8
  %20 = getelementptr inbounds i8, ptr %0, i64 224
  %21 = load ptr, ptr %20, align 8
  %22 = call noundef zeroext i1 @_ZNK4llvm7LLLexer5ErrorENS_5SMLocERKNS_5TwineE(ptr noundef nonnull align 8 dereferenceable(161) %11, ptr %21, ptr noundef nonnull align 8 dereferenceable(34) %3) #25
  br label %26

23:                                               ; preds = %10, %16, %15, %14
  %.sink = phi i8 [ 8, %16 ], [ 4, %15 ], [ 2, %14 ], [ 1, %10 ]
  %24 = or i8 %.sroa.0.0, %.sink
  %.sroa.0.0.insert.ext = zext i8 %24 to i32
  tail call void @_ZN4llvm11GlobalValue20setSanitizerMetadataENS0_17SanitizerMetadataE(ptr noundef nonnull align 8 dereferenceable(48) %1, i32 %.sroa.0.0.insert.ext) #25
  %25 = tail call noundef i32 @_ZN4llvm7LLLexer8LexTokenEv(ptr noundef nonnull align 8 dereferenceable(161) %11) #25
  store i32 %25, ptr %12, align 8
  br label %26

26:                                               ; preds = %23, %17
  %.0 = phi i1 [ %22, %17 ], [ false, %23 ]
  ret i1 %.0
}